target datalayout = "e-m:e-p270:32:32-p271:32:32-p272:64:64-i64:64-i128:128-f80:128-n8:16:32:64-S128"
target triple = "x86_64-pc-linux-gnu"

%"struct.icu_77::LSR" = type <{ ptr, ptr, ptr, ptr, i32, i32, i32, [4 x i8] }>

@.str = private unnamed_addr constant [1 x i8] zeroinitializer, align 1

; Function Attrs: mustprogress nounwind uwtable
define void @_ZN6icu_773LSRC2EOS0_(ptr noundef nonnull align 8 dereferenceable(48) %0, ptr noundef nonnull align 8 dereferenceable(48) %1) unnamed_addr #0 align 2 {
  %3 = alloca ptr, align 8
  %4 = alloca ptr, align 8
  store ptr %0, ptr %3, align 8, !tbaa !23
  store ptr %1, ptr %4, align 8, !tbaa !23
  %5 = load ptr, ptr %3, align 8
  %6 = getelementptr inbounds nuw %"struct.icu_77::LSR", ptr %5, i32 0, i32 0
  %7 = load ptr, ptr %4, align 8, !tbaa !23
  %8 = getelementptr inbounds nuw %"struct.icu_77::LSR", ptr %7, i32 0, i32 0
  %9 = load ptr, ptr %8, align 8, !tbaa !26
  store ptr %9, ptr %6, align 8, !tbaa !26
  %10 = getelementptr inbounds nuw %"struct.icu_77::LSR", ptr %5, i32 0, i32 1
  %11 = load ptr, ptr %4, align 8, !tbaa !23
  %12 = getelementptr inbounds nuw %"struct.icu_77::LSR", ptr %11, i32 0, i32 1
  %13 = load ptr, ptr %12, align 8, !tbaa !28
  store ptr %13, ptr %10, align 8, !tbaa !28
  %14 = getelementptr inbounds nuw %"struct.icu_77::LSR", ptr %5, i32 0, i32 2
  %15 = load ptr, ptr %4, align 8, !tbaa !23
  %16 = getelementptr inbounds nuw %"struct.icu_77::LSR", ptr %15, i32 0, i32 2
  %17 = load ptr, ptr %16, align 8, !tbaa !29
  store ptr %17, ptr %14, align 8, !tbaa !29
  %18 = getelementptr inbounds nuw %"struct.icu_77::LSR", ptr %5, i32 0, i32 3
  %19 = load ptr, ptr %4, align 8, !tbaa !23
  %20 = getelementptr inbounds nuw %"struct.icu_77::LSR", ptr %19, i32 0, i32 3
  %21 = load ptr, ptr %20, align 8, !tbaa !30
  store ptr %21, ptr %18, align 8, !tbaa !30
  %22 = getelementptr inbounds nuw %"struct.icu_77::LSR", ptr %5, i32 0, i32 4
  %23 = load ptr, ptr %4, align 8, !tbaa !23
  %24 = getelementptr inbounds nuw %"struct.icu_77::LSR", ptr %23, i32 0, i32 4
  %25 = load i32, ptr %24, align 8, !tbaa !31
  store i32 %25, ptr %22, align 8, !tbaa !31
  %26 = getelementptr inbounds nuw %"struct.icu_77::LSR", ptr %5, i32 0, i32 5
  %27 = load ptr, ptr %4, align 8, !tbaa !23
  %28 = getelementptr inbounds nuw %"struct.icu_77::LSR", ptr %27, i32 0, i32 5
  %29 = load i32, ptr %28, align 4, !tbaa !32
  store i32 %29, ptr %26, align 4, !tbaa !32
  %30 = getelementptr inbounds nuw %"struct.icu_77::LSR", ptr %5, i32 0, i32 6
  %31 = load ptr, ptr %4, align 8, !tbaa !23
  %32 = getelementptr inbounds nuw %"struct.icu_77::LSR", ptr %31, i32 0, i32 6
  %33 = load i32, ptr %32, align 8, !tbaa !33
  store i32 %33, ptr %30, align 8, !tbaa !33
  %34 = getelementptr inbounds nuw %"struct.icu_77::LSR", ptr %5, i32 0, i32 3
  %35 = load ptr, ptr %34, align 8, !tbaa !30
  %36 = icmp ne ptr %35, null
  br i1 %36, label %37, label %46

37:                                               ; preds = %2
  %38 = load ptr, ptr %4, align 8, !tbaa !23
  %39 = getelementptr inbounds nuw %"struct.icu_77::LSR", ptr %38, i32 0, i32 1
  store ptr @.str, ptr %39, align 8, !tbaa !28
  %40 = load ptr, ptr %4, align 8, !tbaa !23
  %41 = getelementptr inbounds nuw %"struct.icu_77::LSR", ptr %40, i32 0, i32 0
  store ptr @.str, ptr %41, align 8, !tbaa !26
  %42 = load ptr, ptr %4, align 8, !tbaa !23
  %43 = getelementptr inbounds nuw %"struct.icu_77::LSR", ptr %42, i32 0, i32 3
  store ptr null, ptr %43, align 8, !tbaa !30
  %44 = load ptr, ptr %4, align 8, !tbaa !23
  %45 = getelementptr inbounds nuw %"struct.icu_77::LSR", ptr %44, i32 0, i32 6
  store i32 0, ptr %45, align 8, !tbaa !33
  br label %46

46:                                               ; preds = %37, %2
  ret void
}