; Function Attrs: mustprogress nofree norecurse nosync nounwind willreturn memory(argmem: readwrite) uwtable
define void @_ZN6icu_773LSRC2EOS0_(ptr noundef nonnull writeonly align 8 captures(none) dereferenceable(48) initializes((0, 44)) %0, ptr noundef nonnull align 8 captures(none) dereferenceable(48) %1) unnamed_addr #11 align 2 {
  %3 = load ptr, ptr %1, align 8, !tbaa !24
  store ptr %3, ptr %0, align 8, !tbaa !24
  %4 = getelementptr inbounds nuw i8, ptr %0, i64 8
  %5 = getelementptr inbounds nuw i8, ptr %1, i64 8
  %6 = load ptr, ptr %5, align 8, !tbaa !25
  store ptr %6, ptr %4, align 8, !tbaa !25
  %7 = getelementptr inbounds nuw i8, ptr %0, i64 16
  %8 = getelementptr inbounds nuw i8, ptr %1, i64 16
  %9 = load ptr, ptr %8, align 8, !tbaa !15
  store ptr %9, ptr %7, align 8, !tbaa !15
  %10 = getelementptr inbounds nuw i8, ptr %0, i64 24
  %11 = getelementptr inbounds nuw i8, ptr %1, i64 24
  %12 = load ptr, ptr %11, align 8, !tbaa !17
  store ptr %12, ptr %10, align 8, !tbaa !17
  %13 = getelementptr inbounds nuw i8, ptr %0, i64 32
  %14 = getelementptr inbounds nuw i8, ptr %1, i64 32
  %15 = load i32, ptr %14, align 8, !tbaa !19
  store i32 %15, ptr %13, align 8, !tbaa !19
  %16 = getelementptr inbounds nuw i8, ptr %0, i64 36
  %17 = getelementptr inbounds nuw i8, ptr %1, i64 36
  %18 = load i32, ptr %17, align 4, !tbaa !20
  store i32 %18, ptr %16, align 4, !tbaa !20
  %19 = getelementptr inbounds nuw i8, ptr %0, i64 40
  %20 = getelementptr inbounds nuw i8, ptr %1, i64 40
  %21 = load i32, ptr %20, align 8, !tbaa !21
  store i32 %21, ptr %19, align 8, !tbaa !21
  %.not = icmp eq ptr %12, null
  br i1 %.not, label %23, label %22

22:                                               ; preds = %2
  store ptr @.str, ptr %5, align 8, !tbaa !25
  store ptr @.str, ptr %1, align 8, !tbaa !24
  store ptr null, ptr %11, align 8, !tbaa !17
  store i32 0, ptr %20, align 8, !tbaa !21
  br label %23

23:                                               ; preds = %22, %2
  ret void
}